target datalayout = "e-m:e-p270:32:32-p271:32:32-p272:64:64-i64:64-i128:128-f80:128-n8:16:32:64-S128"
target triple = "x86_64-pc-linux-gnu"

%struct.pmix_object_t = type { %union.pthread_mutex_t, ptr, i32, %struct.pmix_tma }
%union.pthread_mutex_t = type { %struct.__pthread_mutex_s }
%struct.__pthread_mutex_s = type { i32, i32, i32, i32, i32, i16, i16, %struct.__pthread_internal_list }
%struct.__pthread_internal_list = type { ptr, ptr }
%struct.pmix_tma = type { ptr, ptr, ptr, ptr, ptr, ptr, ptr, ptr }
%struct.pmix_mca_base_framework_t = type { ptr, ptr, ptr, ptr, ptr, ptr, i32, i32, ptr, ptr, i32, i32, %struct.pmix_list_t, %struct.pmix_list_t }
%struct.pmix_list_t = type { %struct.pmix_object_t, %struct.pmix_list_item_t, i64 }
%struct.pmix_list_item_t = type { %struct.pmix_object_t, ptr, ptr, i32 }
%struct.pmix_output_desc_t = type { i8, i8, i32, i8, i32, ptr, ptr, i32, ptr, i32, i8, i8, i8, i8, ptr, i32, i32 }
%struct.pmix_buffer_t = type { %struct.pmix_object_t, i8, ptr, ptr, ptr, i64, i64 }

@pmix_bfrops_base_framework = external global %struct.pmix_mca_base_framework_t, align 8
@pmix_output_info = external global [0 x %struct.pmix_output_desc_t], align 8
@.str.2 = private unnamed_addr constant [29 x i8] c"pmix20_bfrop_pack_byte * %d\0A\00", align 1
@.str.4 = private unnamed_addr constant [30 x i8] c"pmix20_bfrop_pack_int32 * %d\0A\00", align 1

; Function Attrs: inlinehint nounwind uwtable
define internal i32 @__bswap_32(i32 noundef %0) #3 {
  %2 = alloca i32, align 4
  store i32 %0, ptr %2, align 4, !tbaa !7
  %3 = load i32, ptr %2, align 4, !tbaa !7
  %4 = and i32 %3, -16777216
  %5 = lshr i32 %4, 24
  %6 = load i32, ptr %2, align 4, !tbaa !7
  %7 = and i32 %6, 16711680
  %8 = lshr i32 %7, 8
  %9 = or i32 %5, %8
  %10 = load i32, ptr %2, align 4, !tbaa !7
  %11 = and i32 %10, 65280
  %12 = shl i32 %11, 8
  %13 = or i32 %9, %12
  %14 = load i32, ptr %2, align 4, !tbaa !7
  %15 = and i32 %14, 255
  %16 = shl i32 %15, 24
  %17 = or i32 %13, %16
  ret i32 %17
}

; Function Attrs: nounwind uwtable
define i32 @pmix20_bfrop_pack_byte(ptr noundef %0, ptr noundef %1, ptr noundef %2, i32 noundef %3, i16 noundef zeroext %4) #0 {
  %6 = alloca i32, align 4
  %7 = alloca ptr, align 8
  %8 = alloca ptr, align 8
  %9 = alloca ptr, align 8
  %10 = alloca i32, align 4
  %11 = alloca i16, align 2
  %12 = alloca ptr, align 8
  %13 = alloca i32, align 4
  store ptr %0, ptr %7, align 8, !tbaa !11
  store ptr %1, ptr %8, align 8, !tbaa !3
  store ptr %2, ptr %9, align 8, !tbaa !3
  store i32 %3, ptr %10, align 4, !tbaa !7
  store i16 %4, ptr %11, align 2, !tbaa !9
  call void @llvm.lifetime.start.p0(i64 8, ptr %12) #9
  %14 = load i32, ptr getelementptr inbounds nuw (%struct.pmix_mca_base_framework_t, ptr @pmix_bfrops_base_framework, i32 0, i32 11), align 4, !tbaa !22
  %15 = icmp sge i32 %14, 0
  br i1 %15, label %16, label %29

16:                                               ; preds = %5
  %17 = load i32, ptr getelementptr inbounds nuw (%struct.pmix_mca_base_framework_t, ptr @pmix_bfrops_base_framework, i32 0, i32 11), align 4, !tbaa !22
  %18 = icmp slt i32 %17, 64
  br i1 %18, label %19, label %29

19:                                               ; preds = %16
  %20 = load i32, ptr getelementptr inbounds nuw (%struct.pmix_mca_base_framework_t, ptr @pmix_bfrops_base_framework, i32 0, i32 11), align 4, !tbaa !22
  %21 = sext i32 %20 to i64
  %22 = getelementptr inbounds [0 x %struct.pmix_output_desc_t], ptr @pmix_output_info, i64 0, i64 %21
  %23 = getelementptr inbounds nuw %struct.pmix_output_desc_t, ptr %22, i32 0, i32 2
  %24 = load i32, ptr %23, align 4, !tbaa !28
  %25 = icmp sge i32 %24, 20
  br i1 %25, label %26, label %29

26:                                               ; preds = %19
  %27 = load i32, ptr getelementptr inbounds nuw (%struct.pmix_mca_base_framework_t, ptr @pmix_bfrops_base_framework, i32 0, i32 11), align 4, !tbaa !22
  %28 = load i32, ptr %10, align 4, !tbaa !7
  call void (i32, ptr, ...) @pmix_output(i32 noundef %27, ptr noundef @.str.2, i32 noundef %28)
  br label %29

29:                                               ; preds = %26, %19, %16, %5
  %30 = load ptr, ptr %8, align 8, !tbaa !3
  %31 = load i32, ptr %10, align 4, !tbaa !7
  %32 = sext i32 %31 to i64
  %33 = call ptr @pmix_bfrop_buffer_extend(ptr noundef %30, i64 noundef %32)
  store ptr %33, ptr %12, align 8, !tbaa !31
  %34 = icmp eq ptr null, %33
  br i1 %34, label %35, label %36

35:                                               ; preds = %29
  store i32 -29, ptr %6, align 4
  store i32 1, ptr %13, align 4
  br label %53

36:                                               ; preds = %29
  %37 = load ptr, ptr %12, align 8, !tbaa !31
  %38 = load ptr, ptr %9, align 8, !tbaa !3
  %39 = load i32, ptr %10, align 4, !tbaa !7
  %40 = sext i32 %39 to i64
  call void @llvm.memcpy.p0.p0.i64(ptr align 1 %37, ptr align 1 %38, i64 %40, i1 false)
  %41 = load i32, ptr %10, align 4, !tbaa !7
  %42 = load ptr, ptr %8, align 8, !tbaa !3
  %43 = getelementptr inbounds nuw %struct.pmix_buffer_t, ptr %42, i32 0, i32 3
  %44 = load ptr, ptr %43, align 8, !tbaa !34
  %45 = sext i32 %41 to i64
  %46 = getelementptr inbounds i8, ptr %44, i64 %45
  store ptr %46, ptr %43, align 8, !tbaa !34
  %47 = load i32, ptr %10, align 4, !tbaa !7
  %48 = sext i32 %47 to i64
  %49 = load ptr, ptr %8, align 8, !tbaa !3
  %50 = getelementptr inbounds nuw %struct.pmix_buffer_t, ptr %49, i32 0, i32 6
  %51 = load i64, ptr %50, align 8, !tbaa !35
  %52 = add i64 %51, %48
  store i64 %52, ptr %50, align 8, !tbaa !35
  store i32 0, ptr %6, align 4
  store i32 1, ptr %13, align 4
  br label %53

53:                                               ; preds = %36, %35
  call void @llvm.lifetime.end.p0(i64 8, ptr %12) #9
  %54 = load i32, ptr %6, align 4
  ret i32 %54
}

; Function Attrs: nounwind uwtable
define i32 @pmix20_bfrop_pack_int32(ptr noundef %0, ptr noundef %1, ptr noundef %2, i32 noundef %3, i16 noundef zeroext %4) #0 {
  %6 = alloca i32, align 4
  %7 = alloca ptr, align 8
  %8 = alloca ptr, align 8
  %9 = alloca ptr, align 8
  %10 = alloca i32, align 4
  %11 = alloca i16, align 2
  %12 = alloca i32, align 4
  %13 = alloca i32, align 4
  %14 = alloca ptr, align 8
  %15 = alloca ptr, align 8
  %16 = alloca i32, align 4
  store ptr %0, ptr %7, align 8, !tbaa !11
  store ptr %1, ptr %8, align 8, !tbaa !3
  store ptr %2, ptr %9, align 8, !tbaa !3
  store i32 %3, ptr %10, align 4, !tbaa !7
  store i16 %4, ptr %11, align 2, !tbaa !9
  call void @llvm.lifetime.start.p0(i64 4, ptr %12) #9
  call void @llvm.lifetime.start.p0(i64 4, ptr %13) #9
  call void @llvm.lifetime.start.p0(i64 8, ptr %14) #9
  %17 = load ptr, ptr %9, align 8, !tbaa !3
  store ptr %17, ptr %14, align 8, !tbaa !20
  call void @llvm.lifetime.start.p0(i64 8, ptr %15) #9
  %18 = load i32, ptr getelementptr inbounds nuw (%struct.pmix_mca_base_framework_t, ptr @pmix_bfrops_base_framework, i32 0, i32 11), align 4, !tbaa !22
  %19 = icmp sge i32 %18, 0
  br i1 %19, label %20, label %33

20:                                               ; preds = %5
  %21 = load i32, ptr getelementptr inbounds nuw (%struct.pmix_mca_base_framework_t, ptr @pmix_bfrops_base_framework, i32 0, i32 11), align 4, !tbaa !22
  %22 = icmp slt i32 %21, 64
  br i1 %22, label %23, label %33

23:                                               ; preds = %20
  %24 = load i32, ptr getelementptr inbounds nuw (%struct.pmix_mca_base_framework_t, ptr @pmix_bfrops_base_framework, i32 0, i32 11), align 4, !tbaa !22
  %25 = sext i32 %24 to i64
  %26 = getelementptr inbounds [0 x %struct.pmix_output_desc_t], ptr @pmix_output_info, i64 0, i64 %25
  %27 = getelementptr inbounds nuw %struct.pmix_output_desc_t, ptr %26, i32 0, i32 2
  %28 = load i32, ptr %27, align 4, !tbaa !28
  %29 = icmp sge i32 %28, 20
  br i1 %29, label %30, label %33

30:                                               ; preds = %23
  %31 = load i32, ptr getelementptr inbounds nuw (%struct.pmix_mca_base_framework_t, ptr @pmix_bfrops_base_framework, i32 0, i32 11), align 4, !tbaa !22
  %32 = load i32, ptr %10, align 4, !tbaa !7
  call void (i32, ptr, ...) @pmix_output(i32 noundef %31, ptr noundef @.str.4, i32 noundef %32)
  br label %33

33:                                               ; preds = %30, %23, %20, %5
  %34 = load ptr, ptr %8, align 8, !tbaa !3
  %35 = load i32, ptr %10, align 4, !tbaa !7
  %36 = sext i32 %35 to i64
  %37 = mul i64 %36, 4
  %38 = call ptr @pmix_bfrop_buffer_extend(ptr noundef %34, i64 noundef %37)
  store ptr %38, ptr %15, align 8, !tbaa !31
  %39 = icmp eq ptr null, %38
  br i1 %39, label %40, label %41

40:                                               ; preds = %33
  store i32 -29, ptr %6, align 4
  store i32 1, ptr %16, align 4
  br label %74

41:                                               ; preds = %33
  store i32 0, ptr %12, align 4, !tbaa !7
  br label %42

42:                                               ; preds = %56, %41
  %43 = load i32, ptr %12, align 4, !tbaa !7
  %44 = load i32, ptr %10, align 4, !tbaa !7
  %45 = icmp slt i32 %43, %44
  br i1 %45, label %46, label %59

46:                                               ; preds = %42
  %47 = load ptr, ptr %14, align 8, !tbaa !20
  %48 = load i32, ptr %12, align 4, !tbaa !7
  %49 = sext i32 %48 to i64
  %50 = getelementptr inbounds i32, ptr %47, i64 %49
  %51 = load i32, ptr %50, align 4, !tbaa !7
  %52 = call i32 @__bswap_32(i32 noundef %51)
  store i32 %52, ptr %13, align 4, !tbaa !7
  %53 = load ptr, ptr %15, align 8, !tbaa !31
  call void @llvm.memcpy.p0.p0.i64(ptr align 1 %53, ptr align 4 %13, i64 4, i1 false)
  %54 = load ptr, ptr %15, align 8, !tbaa !31
  %55 = getelementptr inbounds nuw i8, ptr %54, i64 4
  store ptr %55, ptr %15, align 8, !tbaa !31
  br label %56

56:                                               ; preds = %46
  %57 = load i32, ptr %12, align 4, !tbaa !7
  %58 = add nsw i32 %57, 1
  store i32 %58, ptr %12, align 4, !tbaa !7
  br label %42, !llvm.loop !32

59:                                               ; preds = %42
  %60 = load i32, ptr %10, align 4, !tbaa !7
  %61 = sext i32 %60 to i64
  %62 = mul i64 %61, 4
  %63 = load ptr, ptr %8, align 8, !tbaa !3
  %64 = getelementptr inbounds nuw %struct.pmix_buffer_t, ptr %63, i32 0, i32 3
  %65 = load ptr, ptr %64, align 8, !tbaa !34
  %66 = getelementptr inbounds nuw i8, ptr %65, i64 %62
  store ptr %66, ptr %64, align 8, !tbaa !34
  %67 = load i32, ptr %10, align 4, !tbaa !7
  %68 = sext i32 %67 to i64
  %69 = mul i64 %68, 4
  %70 = load ptr, ptr %8, align 8, !tbaa !3
  %71 = getelementptr inbounds nuw %struct.pmix_buffer_t, ptr %70, i32 0, i32 6
  %72 = load i64, ptr %71, align 8, !tbaa !35
  %73 = add i64 %72, %69
  store i64 %73, ptr %71, align 8, !tbaa !35
  store i32 0, ptr %6, align 4
  store i32 1, ptr %16, align 4
  br label %74

74:                                               ; preds = %59, %40
  call void @llvm.lifetime.end.p0(i64 8, ptr %15) #9
  call void @llvm.lifetime.end.p0(i64 8, ptr %14) #9
  call void @llvm.lifetime.end.p0(i64 4, ptr %13) #9
  call void @llvm.lifetime.end.p0(i64 4, ptr %12) #9
  %75 = load i32, ptr %6, align 4
  ret i32 %75
}

; Function Attrs: nounwind uwtable
define i32 @pmix20_bfrop_pack_string(ptr noundef %0, ptr noundef %1, ptr noundef %2, i32 noundef %3, i16 noundef zeroext %4) #0 {
  %6 = alloca i32, align 4
  %7 = alloca ptr, align 8
  %8 = alloca ptr, align 8
  %9 = alloca ptr, align 8
  %10 = alloca i32, align 4
  %11 = alloca i16, align 2
  %12 = alloca i32, align 4
  %13 = alloca i32, align 4
  %14 = alloca i32, align 4
  %15 = alloca ptr, align 8
  %16 = alloca i32, align 4
  store ptr %0, ptr %7, align 8, !tbaa !11
  store ptr %1, ptr %8, align 8, !tbaa !3
  store ptr %2, ptr %9, align 8, !tbaa !3
  store i32 %3, ptr %10, align 4, !tbaa !7
  store i16 %4, ptr %11, align 2, !tbaa !9
  call void @llvm.lifetime.start.p0(i64 4, ptr %12) #9
  store i32 0, ptr %12, align 4, !tbaa !7
  call void @llvm.lifetime.start.p0(i64 4, ptr %13) #9
  call void @llvm.lifetime.start.p0(i64 4, ptr %14) #9
  call void @llvm.lifetime.start.p0(i64 8, ptr %15) #9
  %17 = load ptr, ptr %9, align 8, !tbaa !3
  store ptr %17, ptr %15, align 8, !tbaa !54
  store i32 0, ptr %13, align 4, !tbaa !7
  br label %18

18:                                               ; preds = %67, %5
  %19 = load i32, ptr %13, align 4, !tbaa !7
  %20 = load i32, ptr %10, align 4, !tbaa !7
  %21 = icmp slt i32 %19, %20
  br i1 %21, label %22, label %70

22:                                               ; preds = %18
  %23 = load ptr, ptr %15, align 8, !tbaa !54
  %24 = load i32, ptr %13, align 4, !tbaa !7
  %25 = sext i32 %24 to i64
  %26 = getelementptr inbounds ptr, ptr %23, i64 %25
  %27 = load ptr, ptr %26, align 8, !tbaa !31
  %28 = icmp eq ptr null, %27
  br i1 %28, label %29, label %37

29:                                               ; preds = %22
  store i32 0, ptr %14, align 4, !tbaa !7
  %30 = load ptr, ptr %7, align 8, !tbaa !11
  %31 = load ptr, ptr %8, align 8, !tbaa !3
  %32 = call i32 @pmix20_bfrop_pack_int32(ptr noundef %30, ptr noundef %31, ptr noundef %14, i32 noundef 1, i16 noundef zeroext 9)
  store i32 %32, ptr %12, align 4, !tbaa !7
  %33 = icmp ne i32 0, %32
  br i1 %33, label %34, label %36

34:                                               ; preds = %29
  %35 = load i32, ptr %12, align 4, !tbaa !7
  store i32 %35, ptr %6, align 4
  store i32 1, ptr %16, align 4
  br label %71

36:                                               ; preds = %29
  br label %66

37:                                               ; preds = %22
  %38 = load ptr, ptr %15, align 8, !tbaa !54
  %39 = load i32, ptr %13, align 4, !tbaa !7
  %40 = sext i32 %39 to i64
  %41 = getelementptr inbounds ptr, ptr %38, i64 %40
  %42 = load ptr, ptr %41, align 8, !tbaa !31
  %43 = call i64 @strlen(ptr noundef %42) #11
  %44 = trunc i64 %43 to i32
  %45 = add nsw i32 %44, 1
  store i32 %45, ptr %14, align 4, !tbaa !7
  %46 = load ptr, ptr %7, align 8, !tbaa !11
  %47 = load ptr, ptr %8, align 8, !tbaa !3
  %48 = call i32 @pmix20_bfrop_pack_int32(ptr noundef %46, ptr noundef %47, ptr noundef %14, i32 noundef 1, i16 noundef zeroext 9)
  store i32 %48, ptr %12, align 4, !tbaa !7
  %49 = icmp ne i32 0, %48
  br i1 %49, label %50, label %52

50:                                               ; preds = %37
  %51 = load i32, ptr %12, align 4, !tbaa !7
  store i32 %51, ptr %6, align 4
  store i32 1, ptr %16, align 4
  br label %71

52:                                               ; preds = %37
  %53 = load ptr, ptr %7, align 8, !tbaa !11
  %54 = load ptr, ptr %8, align 8, !tbaa !3
  %55 = load ptr, ptr %15, align 8, !tbaa !54
  %56 = load i32, ptr %13, align 4, !tbaa !7
  %57 = sext i32 %56 to i64
  %58 = getelementptr inbounds ptr, ptr %55, i64 %57
  %59 = load ptr, ptr %58, align 8, !tbaa !31
  %60 = load i32, ptr %14, align 4, !tbaa !7
  %61 = call i32 @pmix20_bfrop_pack_byte(ptr noundef %53, ptr noundef %54, ptr noundef %59, i32 noundef %60, i16 noundef zeroext 2)
  store i32 %61, ptr %12, align 4, !tbaa !7
  %62 = icmp ne i32 0, %61
  br i1 %62, label %63, label %65

63:                                               ; preds = %52
  %64 = load i32, ptr %12, align 4, !tbaa !7
  store i32 %64, ptr %6, align 4
  store i32 1, ptr %16, align 4
  br label %71

65:                                               ; preds = %52
  br label %66

66:                                               ; preds = %65, %36
  br label %67

67:                                               ; preds = %66
  %68 = load i32, ptr %13, align 4, !tbaa !7
  %69 = add nsw i32 %68, 1
  store i32 %69, ptr %13, align 4, !tbaa !7
  br label %18, !llvm.loop !56

70:                                               ; preds = %18
  store i32 0, ptr %6, align 4
  store i32 1, ptr %16, align 4
  br label %71

71:                                               ; preds = %70, %63, %50, %34
  call void @llvm.lifetime.end.p0(i64 8, ptr %15) #9
  call void @llvm.lifetime.end.p0(i64 4, ptr %14) #9
  call void @llvm.lifetime.end.p0(i64 4, ptr %13) #9
  call void @llvm.lifetime.end.p0(i64 4, ptr %12) #9
  %72 = load i32, ptr %6, align 4
  ret i32 %72
}