; Function Attrs: nounwind uwtable
define range(i32 -29, 1) i32 @pmix20_bfrop_pack_string(ptr readnone captures(none) %0, ptr noundef %1, ptr noundef readonly captures(none) %2, i32 noundef %3, i16 zeroext %4) local_unnamed_addr #0 {
  %6 = icmp sgt i32 %3, 0
  br i1 %6, label %.lr.ph, label %pmix20_bfrop_pack_int32.exit

.lr.ph:                                           ; preds = %5
  %7 = getelementptr inbounds nuw i8, ptr %1, i64 136
  %8 = getelementptr inbounds nuw i8, ptr %1, i64 160
  %wide.trip.count = zext nneg i32 %3 to i64
  br label %9

9:                                                ; preds = %.lr.ph, %55
  %indvars.iv = phi i64 [ 0, %.lr.ph ], [ %indvars.iv.next, %55 ]
  %10 = getelementptr inbounds nuw ptr, ptr %2, i64 %indvars.iv
  %11 = load ptr, ptr %10, align 8, !tbaa !45
  %12 = icmp eq ptr %11, null
  br i1 %12, label %13, label %24

13:                                               ; preds = %9
  %14 = load i32, ptr getelementptr inbounds nuw (i8, ptr @pmix_bfrops_base_framework, i64 76), align 4, !tbaa !14
  %or.cond.i = icmp ult i32 %14, 64
  br i1 %or.cond.i, label %15, label %21

15:                                               ; preds = %13
  %16 = zext nneg i32 %14 to i64
  %17 = getelementptr inbounds nuw [0 x %struct.pmix_output_desc_t], ptr @pmix_output_info, i64 0, i64 %16, i32 2
  %18 = load i32, ptr %17, align 4, !tbaa !20
  %19 = icmp sgt i32 %18, 19
  br i1 %19, label %20, label %21

20:                                               ; preds = %15
  tail call void (i32, ptr, ...) @pmix_output(i32 noundef %14, ptr noundef nonnull @.str.4, i32 noundef 1) #8
  br label %21

21:                                               ; preds = %20, %15, %13
  %22 = tail call ptr @pmix_bfrop_buffer_extend(ptr noundef %1, i64 noundef 4) #8
  %23 = icmp eq ptr %22, null
  br i1 %23, label %pmix20_bfrop_pack_int32.exit, label %.lr.ph.i.preheader

.lr.ph.i.preheader:                               ; preds = %21
  store i32 0, ptr %22, align 1
  br label %55

24:                                               ; preds = %9
  %25 = tail call i64 @strlen(ptr noundef nonnull dereferenceable(1) %11) #9
  %26 = trunc i64 %25 to i32
  %27 = add nsw i32 %26, 1
  %28 = load i32, ptr getelementptr inbounds nuw (i8, ptr @pmix_bfrops_base_framework, i64 76), align 4, !tbaa !14
  %or.cond.i26 = icmp ult i32 %28, 64
  br i1 %or.cond.i26, label %29, label %35

29:                                               ; preds = %24
  %30 = zext nneg i32 %28 to i64
  %31 = getelementptr inbounds nuw [0 x %struct.pmix_output_desc_t], ptr @pmix_output_info, i64 0, i64 %30, i32 2
  %32 = load i32, ptr %31, align 4, !tbaa !20
  %33 = icmp sgt i32 %32, 19
  br i1 %33, label %34, label %35

34:                                               ; preds = %29
  tail call void (i32, ptr, ...) @pmix_output(i32 noundef %28, ptr noundef nonnull @.str.4, i32 noundef 1) #8
  br label %35

35:                                               ; preds = %34, %29, %24
  %36 = tail call ptr @pmix_bfrop_buffer_extend(ptr noundef %1, i64 noundef 4) #8
  %37 = icmp eq ptr %36, null
  br i1 %37, label %pmix20_bfrop_pack_int32.exit, label %.lr.ph.i28.preheader

.lr.ph.i28.preheader:                             ; preds = %35
  %38 = tail call noundef i32 @llvm.bswap.i32(i32 %27)
  store i32 %38, ptr %36, align 1
  %39 = load ptr, ptr %7, align 8, !tbaa !23
  %40 = getelementptr inbounds nuw i8, ptr %39, i64 4
  store ptr %40, ptr %7, align 8, !tbaa !23
  %41 = load i64, ptr %8, align 8, !tbaa !24
  %42 = add i64 %41, 4
  store i64 %42, ptr %8, align 8, !tbaa !24
  %43 = load ptr, ptr %10, align 8, !tbaa !45
  %44 = load i32, ptr getelementptr inbounds nuw (i8, ptr @pmix_bfrops_base_framework, i64 76), align 4, !tbaa !14
  %or.cond.i36 = icmp ult i32 %44, 64
  br i1 %or.cond.i36, label %45, label %51

45:                                               ; preds = %.lr.ph.i28.preheader
  %46 = zext nneg i32 %44 to i64
  %47 = getelementptr inbounds nuw [0 x %struct.pmix_output_desc_t], ptr @pmix_output_info, i64 0, i64 %46, i32 2
  %48 = load i32, ptr %47, align 4, !tbaa !20
  %49 = icmp sgt i32 %48, 19
  br i1 %49, label %50, label %51

50:                                               ; preds = %45
  tail call void (i32, ptr, ...) @pmix_output(i32 noundef %44, ptr noundef nonnull @.str.2, i32 noundef %27) #8
  br label %51

51:                                               ; preds = %50, %45, %.lr.ph.i28.preheader
  %52 = sext i32 %27 to i64
  %53 = tail call ptr @pmix_bfrop_buffer_extend(ptr noundef nonnull %1, i64 noundef %52) #8
  %54 = icmp eq ptr %53, null
  br i1 %54, label %pmix20_bfrop_pack_int32.exit, label %pmix20_bfrop_pack_byte.exit.thread

pmix20_bfrop_pack_byte.exit.thread:               ; preds = %51
  tail call void @llvm.memcpy.p0.p0.i64(ptr nonnull align 1 %53, ptr readonly align 1 %43, i64 %52, i1 false)
  br label %55

55:                                               ; preds = %pmix20_bfrop_pack_byte.exit.thread, %.lr.ph.i.preheader
  %.sink57 = phi i64 [ %52, %pmix20_bfrop_pack_byte.exit.thread ], [ 4, %.lr.ph.i.preheader ]
  %56 = load ptr, ptr %7, align 8, !tbaa !23
  %57 = getelementptr inbounds i8, ptr %56, i64 %.sink57
  store ptr %57, ptr %7, align 8, !tbaa !23
  %58 = load i64, ptr %8, align 8, !tbaa !24
  %59 = add i64 %58, %.sink57
  store i64 %59, ptr %8, align 8, !tbaa !24
  %indvars.iv.next = add nuw nsw i64 %indvars.iv, 1
  %exitcond.not = icmp eq i64 %indvars.iv.next, %wide.trip.count
  br i1 %exitcond.not, label %pmix20_bfrop_pack_int32.exit, label %9, !llvm.loop !46

pmix20_bfrop_pack_int32.exit:                     ; preds = %55, %21, %35, %51, %5
  %.0 = phi i32 [ 0, %5 ], [ -29, %51 ], [ -29, %35 ], [ -29, %21 ], [ 0, %55 ]
  ret i32 %.0
}